target datalayout = "e-m:e-p270:32:32-p271:32:32-p272:64:64-i64:64-i128:128-f80:128-n8:16:32:64-S128"
target triple = "x86_64-pc-linux-gnu"

%struct.crypto_aead_aes256gcm_state_ = type { [512 x i8] }

; Function Attrs: nounwind ssp uwtable
define dso_local i32 @crypto_aead_aes256gcm_decrypt_detached(ptr noundef %0, ptr noundef %1, ptr noundef nonnull %2, i64 noundef %3, ptr noundef nonnull %4, ptr noundef %5, i64 noundef %6, ptr noundef nonnull %7, ptr noundef nonnull %8) #0 {
  %10 = alloca ptr, align 8
  %11 = alloca ptr, align 8
  %12 = alloca ptr, align 8
  %13 = alloca i64, align 8
  %14 = alloca ptr, align 8
  %15 = alloca ptr, align 8
  %16 = alloca i64, align 8
  %17 = alloca ptr, align 8
  %18 = alloca ptr, align 8
  %19 = alloca %struct.crypto_aead_aes256gcm_state_, align 16
  store ptr %0, ptr %10, align 8
  store ptr %1, ptr %11, align 8
  store ptr %2, ptr %12, align 8
  store i64 %3, ptr %13, align 8
  store ptr %4, ptr %14, align 8
  store ptr %5, ptr %15, align 8
  store i64 %6, ptr %16, align 8
  store ptr %7, ptr %17, align 8
  store ptr %8, ptr %18, align 8
  call void @llvm.lifetime.start.p0(i64 512, ptr %19) #14
  %20 = load ptr, ptr %10, align 8
  call void @llvm.prefetch.p0(ptr %20, i32 0, i32 2, i32 1)
  %21 = load ptr, ptr %12, align 8
  call void @llvm.prefetch.p0(ptr %21, i32 0, i32 2, i32 1)
  %22 = load ptr, ptr %15, align 8
  call void @llvm.prefetch.p0(ptr %22, i32 0, i32 2, i32 1)
  %23 = load ptr, ptr %18, align 8
  %24 = call i32 @crypto_aead_aes256gcm_beforenm(ptr noundef %19, ptr noundef %23)
  %25 = load ptr, ptr %10, align 8
  %26 = load ptr, ptr %11, align 8
  %27 = load ptr, ptr %12, align 8
  %28 = load i64, ptr %13, align 8
  %29 = load ptr, ptr %14, align 8
  %30 = load ptr, ptr %15, align 8
  %31 = load i64, ptr %16, align 8
  %32 = load ptr, ptr %17, align 8
  %33 = call i32 @crypto_aead_aes256gcm_decrypt_detached_afternm(ptr noundef %25, ptr noundef %26, ptr noundef %27, i64 noundef %28, ptr noundef %29, ptr noundef %30, i64 noundef %31, ptr noundef %32, ptr noundef %19)
  call void @llvm.lifetime.end.p0(i64 512, ptr %19) #14
  ret i32 %33
}