; Function Attrs: nounwind ssp uwtable
define dso_local i32 @crypto_aead_aes256gcm_decrypt_detached(ptr noundef %0, ptr noundef readnone captures(none) %1, ptr noundef nonnull readonly captures(none) %2, i64 noundef %3, ptr noundef nonnull %4, ptr noundef captures(address_is_null) %5, i64 noundef %6, ptr noundef nonnull readonly captures(none) %7, ptr noundef nonnull readonly captures(none) %8) local_unnamed_addr #3 {
  %10 = alloca %struct.crypto_aead_aes256gcm_state_, align 16
  call void @llvm.lifetime.start.p0(i64 512, ptr nonnull %10) #14
  tail call void @llvm.prefetch.p0(ptr %0, i32 0, i32 2, i32 1)
  tail call void @llvm.prefetch.p0(ptr nonnull %2, i32 0, i32 2, i32 1)
  tail call void @llvm.prefetch.p0(ptr %5, i32 0, i32 2, i32 1)
  %11 = call i32 @crypto_aead_aes256gcm_beforenm(ptr noundef %10, ptr noundef %8)
  %12 = call i32 @crypto_aead_aes256gcm_decrypt_detached_afternm(ptr noundef %0, ptr poison, ptr noundef %2, i64 noundef %3, ptr noundef %4, ptr noundef %5, i64 noundef %6, ptr noundef %7, ptr noundef %10)
  call void @llvm.lifetime.end.p0(i64 512, ptr nonnull %10) #14
  ret i32 %12
}